target datalayout = "e-m:e-p270:32:32-p271:32:32-p272:64:64-i64:64-i128:128-f80:128-n8:16:32:64-S128"
target triple = "x86_64-pc-linux-gnu"

%struct.BackendGlobalData = type <{ ptr, ptr, i8, i8, i8, i8, i8, i8, i8, i8, i8, [3 x i8], i32, ptr, ptr, ptr, ptr, ptr, ptr, ptr, ptr, ptr, ptr, ptr, ptr, ptr, i32, %struct.jvmtiCapabilities, i8, [3 x i8], %struct.jvmtiEventCallbacks, ptr, ptr, ptr, ptr, ptr, ptr, ptr, i32, [4 x i8], ptr, i64, i32, [4 x i8], ptr, i32, i32, i8, i8, [6 x i8] }>
%struct.jvmtiCapabilities = type { i64, i64 }
%struct.jvmtiEventCallbacks = type { ptr, ptr, ptr, ptr, ptr, ptr, ptr, ptr, ptr, ptr, ptr, ptr, ptr, ptr, ptr, ptr, ptr, ptr, ptr, ptr, ptr, ptr, ptr, ptr, ptr, ptr, ptr, ptr, ptr, ptr, ptr, ptr, ptr, ptr, ptr, ptr, ptr, ptr, ptr }
%struct.InvokeRequest = type { i8, i8, i8, i8, i32, i8, i8, ptr, ptr, ptr, ptr, i32, ptr, %union.jvalue, ptr }
%union.jvalue = type { i64 }

@invokerLock = internal global ptr null, align 8
@gdata = external global ptr, align 8
@.str.1 = private unnamed_addr constant [50 x i8] c"src/jdk.jdwp.agent/share/native/libjdwp/invoker.c\00", align 1
@.str.2 = private unnamed_addr constant [7 x i8] c"thread\00", align 1
@stderr = external global ptr, align 8
@.str.3 = private unnamed_addr constant [17 x i8] c"JDWP exit error \00", align 1
@.str.4 = private unnamed_addr constant [2 x i8] c"\0A\00", align 1
@.str.5 = private unnamed_addr constant [19 x i8] c"%s(%d): %s [%s:%d]\00", align 1
@.str.6 = private unnamed_addr constant [30 x i8] c"getting thread invoke request\00", align 1

; Function Attrs: nounwind uwtable
define hidden void @invoker_enableInvokeRequests(ptr noundef %0) #0 {
  %2 = alloca ptr, align 8
  %3 = alloca ptr, align 8
  store ptr %0, ptr %2, align 8
  br label %4

4:                                                ; preds = %1
  %5 = load ptr, ptr @gdata, align 8
  %6 = icmp ne ptr %5, null
  br i1 %6, label %7, label %17

7:                                                ; preds = %4
  %8 = load ptr, ptr @gdata, align 8
  %9 = getelementptr inbounds %struct.BackendGlobalData, ptr %8, i32 0, i32 3
  %10 = load i8, ptr %9, align 1
  %11 = zext i8 %10 to i32
  %12 = icmp ne i32 %11, 0
  br i1 %12, label %13, label %17

13:                                               ; preds = %7
  %14 = load ptr, ptr %2, align 8
  %15 = icmp ne ptr %14, null
  br i1 %15, label %17, label %16

16:                                               ; preds = %13
  call void @jdiAssertionFailed(ptr noundef @.str.1, i32 noundef 262, ptr noundef @.str.2)
  br label %17

17:                                               ; preds = %16, %13, %7, %4
  br label %18

18:                                               ; preds = %17
  %19 = load ptr, ptr @invokerLock, align 8
  call void @debugMonitorEnter(ptr noundef %19)
  %20 = load ptr, ptr %2, align 8
  %21 = call ptr @threadControl_getInvokeRequest(ptr noundef %20)
  store ptr %21, ptr %3, align 8
  %22 = load ptr, ptr %3, align 8
  %23 = icmp eq ptr %22, null
  br i1 %23, label %24, label %27

24:                                               ; preds = %18
  %25 = load ptr, ptr @stderr, align 8
  %26 = call ptr @jvmtiErrorText(i32 noundef 203)
  call void (ptr, ptr, ptr, ptr, ...) @print_message(ptr noundef %25, ptr noundef @.str.3, ptr noundef @.str.4, ptr noundef @.str.5, ptr noundef %26, i32 noundef 203, ptr noundef @.str.6, ptr noundef @.str.1, i32 noundef 267)
  call void @debugInit_exit(i32 noundef 203, ptr noundef @.str.6)
  br label %27

27:                                               ; preds = %24, %18
  %28 = load ptr, ptr %3, align 8
  %29 = getelementptr inbounds %struct.InvokeRequest, ptr %28, i32 0, i32 2
  store i8 1, ptr %29, align 2
  %30 = load ptr, ptr @invokerLock, align 8
  call void @debugMonitorExit(ptr noundef %30)
  ret void
}