; Function Attrs: nounwind uwtable
define hidden void @invoker_enableInvokeRequests(ptr noundef %0) local_unnamed_addr #0 {
  %2 = load ptr, ptr @gdata, align 8
  %.not = icmp eq ptr %2, null
  br i1 %.not, label %9, label %3

3:                                                ; preds = %1
  %4 = getelementptr inbounds i8, ptr %2, i64 17
  %5 = load i8, ptr %4, align 1
  %6 = icmp eq i8 %5, 0
  %7 = icmp ne ptr %0, null
  %or.cond = or i1 %7, %6
  br i1 %or.cond, label %9, label %8

8:                                                ; preds = %3
  tail call void @jdiAssertionFailed(ptr noundef nonnull @.str.1, i32 noundef 262, ptr noundef nonnull @.str.2) #5
  br label %9

9:                                                ; preds = %1, %3, %8
  %10 = load ptr, ptr @invokerLock, align 8
  tail call void @debugMonitorEnter(ptr noundef %10) #5
  %11 = tail call ptr @threadControl_getInvokeRequest(ptr noundef %0) #5
  %12 = icmp eq ptr %11, null
  br i1 %12, label %13, label %16

13:                                               ; preds = %9
  %14 = load ptr, ptr @stderr, align 8
  %15 = tail call ptr @jvmtiErrorText(i32 noundef 203) #5
  tail call void (ptr, ptr, ptr, ptr, ...) @print_message(ptr noundef %14, ptr noundef nonnull @.str.3, ptr noundef nonnull @.str.4, ptr noundef nonnull @.str.5, ptr noundef %15, i32 noundef 203, ptr noundef nonnull @.str.6, ptr noundef nonnull @.str.1, i32 noundef 267) #5
  tail call void @debugInit_exit(i32 noundef 203, ptr noundef nonnull @.str.6) #5
  br label %16

16:                                               ; preds = %13, %9
  %17 = getelementptr inbounds i8, ptr %11, i64 2
  store i8 1, ptr %17, align 2
  %18 = load ptr, ptr @invokerLock, align 8
  tail call void @debugMonitorExit(ptr noundef %18) #5
  ret void
}